ccopy_reg
_reconstructor
p0
(csklearn.linear_model.base
LinearRegression
p1
c__builtin__
object
p2
Ntp3
Rp4
(dp5
S'normalize'
p6
I00
sS'n_jobs'
p7
I-1
sS'rank_'
p8
I4
sS'fit_intercept'
p9
I01
sS'_residues'
p10
cnumpy.core.multiarray
scalar
p11
(cnumpy
dtype
p12
(S'f8'
p13
I0
I1
tp14
Rp15
(I3
S'<'
p16
NNNI-1
I-1
I0
tp17
bS'CzI\xb7w&KA'
p18
tp19
Rp20
sS'coef_'
p21
cnumpy.core.multiarray
_reconstruct
p22
(cnumpy
ndarray
p23
(I0
tp24
S'b'
p25
tp26
Rp27
(I1
(I4
tp28
g15
I00
S"\x8e\r\xe7\x93@\xbdn@\xf4\xfc\xd0\np\x89\xf7\xbf$'G\x06\xaao\xe2\xbfB\x15\x93r\x01\x11\x05\xc0"
p29
tp30
bsS'_sklearn_version'
p31
S'0.19.1'
p32
sS'copy_X'
p33
I01
sS'intercept_'
p34
g11
(g15
S'\x14\xb7\xfc\xf5\x83\x84y@'
p35
tp36
Rp37
sS'singular_'
p38
g22
(g23
(I0
tp39
g25
tp40
Rp41
(I1
(I4
tp42
g15
I00
S'\xd0h\x90\xbd\xf3\x8aQ@\x9d\xe7F\x98P\xf0M@Ls*i\x8f\x14A@z\xe2\xd7\x05\xd3\x8c7@'
p43
tp44
bsb.